((dp0
S'arm_dbg_args'
p1
S'-via:"C:\\GIT\\ADL-STEM\\libraries\\build_box2d_vc10\\box2d_vc10_arm_debug.via" -qemu'
p2
sS'game-icf'
p3
S''
p4
sS'dist'
p5
NsS'module_path_append'
p6
NsS'global_path'
p7
S'c:\\git\\adl-stem'
p8
sS'system_path'
p9
S'c:\\marmalade\\6.0\\s3e\\makefile_builder'
p10
sS'use_prebuilt'
p11
NsS'arm_rel_rtsm_args'
p12
S'-via:"C:\\GIT\\ADL-STEM\\libraries\\build_box2d_vc10\\box2d_vc10_arm_release.via" -qemu'
p13
sS'amd64'
p14
NsS'debug'
p15
NsS'open_with_wmlaunchpad'
p16
I01
sS'gcc_dbg_args'
p17
S'-via:"C:\\GIT\\ADL-STEM\\libraries\\build_box2d_vc10\\box2d_vc10_gcc_debug.via" -qemu'
p18
sS'x86_dbg_exe'
p19
S'c:/marmalade/6.0/s3e\\win32\\s3e_simulator_debug.exe'
p20
sS'disable-runtime-checks'
p21
NsS'no-make'
p22
NsS'optimise-size'
p23
NsS'line-width'
p24
I80
sS'output-name-debug'
p25
g4
sS'arm-fpu'
p26
g4
sS'psp'
p27
NsS'proj_name'
p28
S'box2d_vc10'
p29
sS'rvct-version'
p30
S'none'
p31
sS'compiler'
p32
g4
sS'execute'
p33
NsS'compile-static'
p34
NsS'msvc-project'
p35
NsS'buildenv'
p36
g4
sS'release'
p37
NsS'module_path'
p38
NsS'using_perforce'
p39
I00
sS'shared-arm-lib'
p40
NsS'arm-cpu'
p41
g4
sS'compile-thumb'
p42
NsS'no-ide'
p43
NsS'msvc-version'
p44
S'6.0'
p45
sS'arm'
p46
NsS'builddir'
p47
g4
sS'compile-debug-as-release'
p48
I0
sS'brief'
p49
NsS'dll'
p50
NsS'version'
p51
NsS'ccache'
p52
I0
sS'offline'
p53
NsS'ios-version'
p54
g4
sS'quick'
p55
NsS'gcc_rel_rtsm_args'
p56
S'-via:"C:\\GIT\\ADL-STEM\\libraries\\build_box2d_vc10\\box2d_vc10_gcc_release.via" -qemu'
p57
sS'done_defaults'
p58
I1
sS'path'
p59
NsS's3e-data-dir'
p60
g4
sS'enable-exceptions'
p61
NsS'osx-dll'
p62
NsS'extension'
p63
g4
sS'no-vc6'
p64
NsS'non-interactive'
p65
NsS'win32-console'
p66
NsS'nds'
p67
NsS'dist-format'
p68
g4
sS's3e-force-arch'
p69
NsS'dump_defines'
p70
NsS'verbose'
p71
I0
sS'psp-minis'
p72
NsS'gcc-version'
p73
g4
sS'x86_dbg_args'
p74
S'-via:"C:\\GIT\\ADL-STEM\\libraries\\build_box2d_vc10\\box2d_vc10_debug.via"'
p75
sS'arm-debugger'
p76
g4
sS'use_temp_extension'
p77
NsS'log'
p78
NsS'no-strip'
p79
NsS'rebuild'
p80
NsS'win32-simulator-dll'
p81
NsS'strict'
p82
NsS'mips_dbg_args'
p83
S'../../tools/DeployTool/DeployTool.exe --dir "C:\\GIT\\ADL-STEM\\libraries\\build_box2d_vc10"'
p84
sS'enable-global-path'
p85
NsS'iphone'
p86
NsS'dist-dir'
p87
g4
sS'jflags'
p88
NsS'external-compiler'
p89
NsS'no-distcc'
p90
NsS'preinclude'
p91
NsS'using_sdk'
p92
I01
sS'nologo'
p93
NsS'warn-level'
p94
I2
sS'mips_dbg_exe'
p95
S'c:\\marmalade\\6.0\\s3e\\makefile_builder\\tool_launcher.exe'
p96
sS'mkb_in'
p97
S'C:/GIT/ADL-STEM/libraries/box2d.mkb'
p98
sS'arm_dbg_exe'
p99
S'c:/marmalade/6.0/s3e\\bin\\armdebug.exe'
p100
sS'list-targets'
p101
NsS'arm_rel_exe'
p102
g96
sS'arm_rel_args'
p103
g84
sS'distcc'
p104
NsS'default-buildenv'
p105
S'VC10'
p106
sS'x86_rel_exe'
p107
g20
sS'preprocess-java'
p108
NsS'mips_rel_args'
p109
g84
sS'defines'
p110
NsS'lib'
p111
I1
sS'global_argv'
p112
(lp113
S'C:\\Marmalade\\6.0\\s3e\\makefile_builder\\mkb.py'
p114
aS'--open-with-wmlaunchpad'
p115
aS'C:\\GIT\\ADL-STEM\\libraries\\box2d.mkb'
p116
asS'make'
p117
NsS'optimise-speed'
p118
NsS'internal'
p119
NsS'enable-stdinc'
p120
NsS'deploy-only'
p121
NsS'x86'
p122
NsS'deploy'
p123
g4
sS'x86_run_exe'
p124
S'c:/marmalade/6.0/s3e\\win32\\s3e_console.exe'
p125
sS'x86_rel_args'
p126
S'-via:"C:\\GIT\\ADL-STEM\\libraries\\build_box2d_vc10\\box2d_vc10_release.via"'
p127
sS'gcc_rel_args'
p128
g84
sS'mips'
p129
NsS'incredibuild'
p130
NsS'strict-compile'
p131
NsS'use-auto-subdirs'
p132
NsS'mips_rel_exe'
p133
g96
sS'app-icf'
p134
g4
sS'deployargs'
p135
NsS'mkf_in'
p136
(lp137
S'c:\\git\\adl-stem\\libraries\\box2d.mkf'
p138
asS'strict-mkb'
p139
NsS'executeargs'
p140
NsS'clean'
p141
NsS'no-asm'
p142
NsS'output-name'
p143
g4
sS'no-modules'
p144
NsS'find_define'
p145
g4
s(dp146
S'c:\\marmalade\\6.0\\s3e\\makefile_builder\\templates\\vc7_suo.pyc'
p147
F1334978828.0
sS'c:\\marmalade\\6.0\\s3e\\makefile_builder\\mkb_util.pyc'
p148
F1334978828.0
sS'c:\\marmalade\\6.0\\s3e\\makefile_builder\\templates\\vc8_user.pyc'
p149
F1334978828.0
sS'c:\\marmalade\\6.0\\s3e\\makefile_builder\\docs\\deprecated.options.txt'
p150
F1334967126.0
sS'c:\\marmalade\\6.0\\s3e\\makefile_builder\\plugins\\MakeEmitter.pyc'
p151
F1334978828.0
sS'c:\\marmalade\\6.0\\s3e\\makefile_builder\\templates\\win32_dsp.pyc'
p152
F1334978828.0
sS'c:\\marmalade\\6.0\\s3e\\makefile_builder\\plugins\\S3EEmitter.pyc'
p153
F1334978828.0
sS'c:\\marmalade\\6.0\\s3e\\makefile_builder\\docs\\deprecated.defines.txt'
p154
F1334967126.0
sS'c:\\marmalade\\6.0\\s3e\\makefile_builder\\templates'
p155
F1336598557.8224671
sS'c:\\marmalade\\6.0\\s3e\\makefile_builder\\plugins\\s3e_web.pyc'
p156
F1334978828.0
sS'c:\\marmalade\\6.0\\s3e\\makefile_builder\\plugins\\XcodeEmitter.pyc'
p157
F1336853297.3382192
sS'c:\\marmalade\\6.0\\s3e\\makefile_builder\\mkb.py'
p158
F1334967126.0
sS'c:\\marmalade\\6.0\\s3e\\makefile_builder\\plugins\\SConsEmitter.pyc'
p159
F1334978828.0
sS'c:\\marmalade\\6.0\\s3e\\makefile_builder\\plugins\\null.pyc'
p160
F1334978828.0
sS'c:\\marmalade\\6.0\\s3e\\makefile_builder\\templates\\rvct_linker_script'
p161
F1334967126.0
sS'c:\\marmalade\\6.0\\s3e\\makefile_builder\\plugins\\s3e_qmake.py'
p162
F1334967126.0
sS'c:\\marmalade\\6.0\\s3e\\makefile_builder\\templates\\xcode_pbxuser.py'
p163
F1334967126.0
sS'c:\\marmalade\\6.0\\s3e\\makefile_builder\\templates\\template.suo'
p164
F1334967126.0
sS'c:\\marmalade\\6.0\\s3e\\makefile_builder\\plugins\\iphone.pyc'
p165
F1334978828.0
sS'c:\\marmalade\\6.0\\s3e\\makefile_builder\\plugins\\s3e_vc6.pyc'
p166
F1334978828.0
sS'c:\\marmalade\\6.0\\s3e\\makefile_builder\\plugins\\s3e_make.pyc'
p167
F1334978828.0
sS'c:\\marmalade\\6.0\\s3e\\makefile_builder\\templates\\win32_dsw.pyc'
p168
F1334978828.0
sS'c:\\marmalade\\6.0\\s3e\\makefile_builder\\templates\\xcode4.xcscheme'
p169
F1334967126.0
sS'c:\\marmalade\\6.0\\s3e\\makefile_builder\\templates\\vc10_user.pyc'
p170
F1334978828.0
sS'c:\\marmalade\\6.0\\s3e\\makefile_builder\\plugins\\s3e_qmake.pyc'
p171
F1336853298.3212755
sS'c:\\marmalade\\6.0\\s3e\\makefile_builder\\plugins'
p172
F1336853298.6782959
sS'c:\\marmalade\\6.0\\s3e\\makefile_builder\\mkb_main.pyc'
p173
F1334978828.0
sS'c:\\marmalade\\6.0\\s3e\\makefile_builder\\docs'
p174
F1336598557.9164765
sS'c:\\marmalade\\6.0\\s3e\\makefile_builder\\plugins\\VisualStudioEmitter.pyc'
p175
F1334978828.0
sS'c:\\marmalade\\6.0\\s3e\\makefile_builder\\templates\\mips_linker_script'
p176
F1334967126.0
sS'c:\\marmalade\\6.0\\s3e\\makefile_builder\\templates\\qmake.py'
p177
F1334967126.0
sS'c:\\marmalade\\6.0\\s3e\\makefile_builder\\plugins\\vc6_utils.pyc'
p178
F1334978828.0
sS'c:\\marmalade\\6.0\\s3e\\makefile_builder\\plugins\\XcodeEmitter.py'
p179
F1334967126.0
sS'c:\\marmalade\\6.0\\s3e\\makefile_builder\\templates\\linker_script'
p180
F1334967126.0
sS'c:\\marmalade\\6.0\\s3e\\makefile_builder\\templates\\Info.plist'
p181
F1334967126.0
sS'c:\\marmalade\\6.0\\s3e\\makefile_builder\\templates\\gdb_start.txt'
p182
F1334967126.0
sS'c:\\marmalade\\6.0\\s3e\\makefile_builder\\plugins\\xcode4_schememanagement.py'
p183
F1334967126.0
sS'c:\\marmalade\\6.0\\s3e\\makefile_builder\\mkb_launcher.exe'
p184
F1334968326.0
sS'c:\\marmalade\\6.0\\s3e\\makefile_builder\\templates\\scons.pyc'
p185
F1334978828.0
sS'c:\\marmalade\\6.0\\s3e\\makefile_builder\\docs\\options.txt'
p186
F1334967126.0
sS'c:\\marmalade\\6.0\\s3e\\makefile_builder\\templates\\win32_vcxproj_filters.pyc'
p187
F1334978828.0
sS'c:\\marmalade\\6.0\\s3e\\makefile_builder\\docs\\parse_options.pyc'
p188
F1334978828.0
sS'c:\\marmalade\\6.0\\s3e\\makefile_builder\\extensions'
p189
F1336598557.8354685
sS'c:\\marmalade\\6.0\\s3e\\makefile_builder\\templates\\make.py'
p190
F1334967126.0
sS'c:\\marmalade\\6.0\\s3e\\makefile_builder\\plugins\\win32_vc6.pyc'
p191
F1334978828.0
sS'c:\\marmalade\\6.0\\s3e\\makefile_builder\\plugins\\s3e_xcode.py'
p192
F1334967126.0
sS'c:\\marmalade\\6.0\\s3e\\makefile_builder\\plugins\\s3e_scons.pyc'
p193
F1334978828.0
sS'c:\\marmalade\\6.0\\s3e\\makefile_builder\\docs\\deployment_options.txt'
p194
F1334967126.0
sS'c:\\marmalade\\6.0\\s3e\\makefile_builder\\plugins\\vc7_utils.pyc'
p195
F1334978828.0
sS'c:\\marmalade\\6.0\\s3e\\makefile_builder\\plugins\\deploy.pyc'
p196
F1334978828.0
sS'c:\\marmalade\\6.0\\s3e\\makefile_builder\\templates\\qmake_user.py'
p197
F1334967126.0
sS'c:\\marmalade\\6.0\\s3e\\makefile_builder\\templates\\vc6_opt.pyc'
p198
F1334978828.0
sS'c:\\marmalade\\6.0\\s3e\\makefile_builder\\plugins\\linux_scons.pyc'
p199
F1334978828.0
sS'c:\\marmalade\\6.0\\s3e\\makefile_builder\\mkb_parser.pyc'
p200
F1334978828.0
sS'c:\\marmalade\\6.0\\s3e\\makefile_builder\\plugins\\java.pyc'
p201
F1334978828.0
sS'c:\\marmalade\\6.0\\s3e\\makefile_builder\\plugins\\s3e_xcode.pyc'
p202
F1336853298.679296
sS'c:\\marmalade\\6.0\\s3e\\makefile_builder\\plugins\\Emitter.pyc'
p203
F1334978828.0
sS'c:\\marmalade\\6.0\\s3e\\makefile_builder\\templates\\win32_vcxproj.pyc'
p204
F1334978828.0
sS'c:\\marmalade\\6.0\\s3e\\makefile_builder\\templates\\xcode4_DeployTool.xcscheme'
p205
F1334967126.0
sS'c:\\marmalade\\6.0\\s3e\\makefile_builder\\plugins\\xcode4_schememanagement.pyc'
p206
F1336853297.3832219
sS'c:\\marmalade\\6.0\\s3e\\makefile_builder\\docs\\mkb.defines.txt'
p207
F1334967126.0
sS'c:\\marmalade\\6.0\\s3e\\makefile_builder\\templates\\win32_sln.pyc'
p208
F1334978828.0
sS'c:\\marmalade\\6.0\\s3e\\makefile_builder\\tool_launcher.exe'
p209
F1334968328.0
sS'c:\\marmalade\\6.0\\s3e\\makefile_builder\\templates\\xcode.py'
p210
F1334967126.0
sS'c:\\marmalade\\6.0\\s3e\\makefile_builder\\extensions\\make_dist.py'
p211
F1334967126.0
sS'c:\\marmalade\\6.0\\s3e\\makefile_builder\\templates\\win32_vcproj.pyc'
p212
F1334978828.0
sS'c:\\marmalade\\6.0\\s3e\\makefile_builder\\templates\\template.opt'
p213
F1334967126.0
sS'c:\\marmalade\\6.0\\s3e\\makefile_builder\\templates\\MainWindow.xib'
p214
F1334967126.0
sccopy_reg
_reconstructor
p215
(cmkb_main
MkbFile
p216
c__builtin__
object
p217
Ntp218
Rp219
(dp220
g5
(lp221
sS'target_name'
p222
g215
(cmkb_main
Library
p223
g217
Ntp224
Rp225
(dp226
S'name'
p227
S'../box2d'
p228
sS'expand_name'
p229
I01
sS'include_spec_rvct_objs'
p230
(lp231
sS'include_all_objs'
p232
I00
sS'share_arm'
p233
NsS'arch'
p234
NsS'nodebug'
p235
I00
sg32
NsbsS'current_file'
p236
g98
sS'package_path'
p237
(lp238
sS'post_build'
p239
(lp240
sS'librarys'
p241
(lp242
sS'library_paths'
p243
(lp244
sS'macros'
p245
(dp246
S'IW_PLATFORM_S3E'
p247
NsS'I3D_PLATFORM_S3E'
p248
NsS'IW_MKF_BOX2D'
p249
NsS'S3E_INCLUDE_LEGACY'
p250
NsS'IW_SDK'
p251
NsS'__S3E__'
p252
NsS'_CRT_SECURE_NO_DEPRECATE'
p253
NsS'IW_APP_NAME'
p254
S'"box2d"'
p255
sS'I3D_OS_S3E'
p256
NsS'IW_APP_VERSION'
p257
S'"1.0"'
p258
sS'IW_DEBUG'
p259
NssS'done_warnings'
p260
(dp261
sS'subprojects'
p262
(dp263
g138
S'box2d'
p264
ssS'deployments'
p265
(dp266
S'Default'
p267
g215
(cmkb_main
Deployment
p268
g217
Ntp269
Rp270
(dp271
S'got_version'
p272
I0
sS'assets'
p273
g267
sS'mkb'
p274
g219
sS'target'
p275
Nsg234
(lp276
sS'options'
p277
(dp278
S'iphone-link-lib'
p279
(lp280
sS'game-icf'
p281
NsS'iphone-icon-high-res'
p282
NsS'win32-pref-windowposy'
p283
NsS'win32-pref-windowposx'
p284
NsS'bada-appsecret'
p285
NsS'playbook-author'
p286
NsS'winmobile-icon32'
p287
NsS'linux-ext-lib'
p288
(lp289
sS'target-folder'
p290
NsS'ngi-splashscreen-port'
p291
NsS'psp-discversion'
p292
NsS'lgtv-use-drm'
p293
NsS'nds-bannertitle-sp'
p294
NsS'symbian-platsecflags'
p295
NsS'psp-producer'
p296
NsS'iphone-provisioning-profile'
p297
NsS'copyright'
p298
NsS'winmobile-png45'
p299
NsS'iphone-link-libdir'
p300
(lp301
sS'symbian-cert'
p302
NsS'nds-bannertitle-hn'
p303
NsS'brew-depends'
p304
NsS'winmobile-png60'
p305
NsS'winmobile-nouninstall'
p306
NsS'brew-mif'
p307
NsS'android-icon-hdpi'
p308
NsS'iphone-ipad-only'
p309
NsS'iphone-bundle-url-name'
p310
NsS'android-aliasname'
p311
NsS'psp-dlgmanual'
p312
NsS'iphone-backgroundmode-audio'
p313
NsS'android-pkgname'
p314
NsS'webos-memory'
p315
NsS'brew-uid'
p316
NsS'android-keypass'
p317
NsS'ngi-uid'
p318
NsS'symbian-locationsupport'
p319
NsS'iphone-signing-host'
p320
NsS'ngi-install-sisx-only'
p321
NsS'nds-bannertitle-jp'
p322
NsS'name'
p323
NsS'symbian-icon1-format'
p324
NsS'uiq3-uid'
p325
NsS'psp-dlgcontentid'
p326
NsS'auto-derbh'
p327
NsS'arch'
p328
NsS'bada-use-partner-privileges'
p329
NsS'nds-bannertitle-it'
p330
NsS'playbook-authorid'
p331
NsS'psp-copyright'
p332
NsS'ngi-achievements'
p333
NsS'splashscreen'
p334
NsS'symbian-soundrecordsupport'
p335
NsS'symbian-icon2-format'
p336
NsS'long-caption'
p337
NsS'iphone-icon-settings-high-res'
p338
NsS'android-manifest'
p339
NsS'ngi-splash-producer'
p340
NsS'winmobile-icon16'
p341
NsS's3e-compression'
p342
NsS'ngi-game-extras'
p343
NsS'iphone-link-opts'
p344
(lp345
sS'iphone-region'
p346
NsS'uiq3-icon3-mask'
p347
NsS'winmobile-start-menu-folder'
p348
NsS'brew-clsid'
p349
NsS'brew-encoding'
p350
NsS'symbian-icon1'
p351
NsS'symbian-icon2'
p352
NsS'ngi-icon1'
p353
NsS'nds-makercode'
p354
NsS'ngi-icon3'
p355
NsS'ngi-icon2'
p356
NsS'ngi-icon4'
p357
NsS'osx-ext-dll'
p358
(lp359
sS'version'
p360
NsS'bada-manifest'
p361
NsS'provider'
p362
NsS'iphone-prerendered-icon'
p363
NsS'iphone-appid'
p364
NsS'playbook-keystore'
p365
NsS'nds-initialcode'
p366
NsS'ngi-splashscreen-land'
p367
NsS'ngi-key'
p368
NsS'winmobile-icon64'
p369
NsS'iphone-persistent-wifi'
p370
NsS'symbian7-uid'
p371
NsS'winmobile-setup-dll'
p372
NsS'symbian-osexecsupport'
p373
NsS'android-install-location'
p374
NsS'olddeploytoolstyle'
p375
NsS'nds-privatesavedatasize'
p376
NsS'symbian9-uid'
p377
NsS'nds-bannertitle-cn'
p378
NsS'winmobile-trace-file'
p379
NsS'playbook-storepass'
p380
NsS'ngi-no-assets'
p381
NsS'android-icon-ldpi'
p382
NsS'psp-appversion'
p383
NsS'networking'
p384
NsS'winmobile-install-folder'
p385
NsS'ngi-metadata'
p386
NsS'android-external-res'
p387
(lp388
sS'manufacturer'
p389
NsS'android-icon-gallery'
p390
NsS'bada-signed'
p391
NsS'nds-publicsavedatasize'
p392
NsS'iphone-apple-wwdr-cert'
p393
NsS'psp-snd0'
p394
NsS'iphone-extra-sections'
p395
NsS'iphone-nosign'
p396
NsS'caption'
p397
NsS'android-icon'
p398
NsS'android-external-jars'
p399
(lp400
sS'android-storepass'
p401
NsS'iphone-info-plist'
p402
NsS'ngi-arena-config'
p403
NsS'android-extra-manifest'
p404
(lp405
sS'iphone-icon-ipad-search'
p406
NsS'android-custom-activity'
p407
NsS'version-minor'
p408
NsS'iphone-icon-ipad'
p409
NsS'bada-appid'
p410
NsS'meego-desc'
p411
NsS'iphone-distribution-key'
p412
NsS'iphone-link-libdirs'
p413
(lp414
sS'iphone-icon-large'
p415
NsS'symbian-maxheapsize'
p416
NsS'embed-icf'
p417
NsS'psp-titlename'
p418
NsS'win-icon'
p419
NsS'symbian-icon1-mask'
p420
NsS'psp-parentallevel'
p421
NsS'priv-sign-key'
p422
NsS'webos-appinfo'
p423
NsS'symbian-cert-key'
p424
NsS'winmobile-ampd-part-number'
p425
NsS'webos-appid'
p426
NsS'android-icon-nonstandard'
p427
NsS'android-extra-application-manifest'
p428
(lp429
sS'iphone-icon-settings'
p430
NsS'ngi-gameinfo'
p431
NsS'iphone-distribution-cert'
p432
NsS'osx-icon'
p433
NsS'symbian-disable-ecompxl'
p434
NsS'splashscreen-auto-onblack'
p435
NsS'icon'
p436
NsS'nds-romheadertemplate'
p437
NsS'webos-icon'
p438
NsS'ngi-arena-rss'
p439
NsS'nds-bannertitle-en'
p440
NsS'win32-ext-dll'
p441
(lp442
sS'psp-dlgicon0'
p443
NsS'iphone-development-key'
p444
NsS'psp-discid'
p445
NsS'winmobile-icon48'
p446
NsS'uiq3-icon1-mask'
p447
NsS'nds-titlename'
p448
NsS'android-so'
p449
(lp450
sS'android-supports-gl-texture'
p451
(lp452
sS'bada-splash'
p453
NsS'version-revision'
p454
NsS'android-icon-mdpi'
p455
NsS'android-keystore'
p456
NsS'uiq3-icon2-format'
p457
NsS'version-string'
p458
NsS'winmobile-png90'
p459
NsS'iphone-disable-ipad'
p460
NsS'uiq3-icon1-format'
p461
NsS'iphone-bundle-url-schemes'
p462
NsS'nds-icon'
p463
NsS'ngi-arena-locales'
p464
NsS'iphone-development-cert'
p465
NsS'ngi-filemanager-lib'
p466
NsS'meego-provider-contact'
p467
NsS'android_extra_strings'
p468
NsS'playbook-icon'
p469
NsS'uid'
p470
NsS'iphone-signing-identity'
p471
NsS'brew-icon-medium'
p472
NsS'brew-icon-large'
p473
NsS'pkguid-as-uid'
p474
NsS'symbian-icon1-mask-black'
p475
NsS'uiq3-icon2'
p476
NsS'pub-sign-key'
p477
NsS'nds-bannertitle-fr'
p478
NsS'win32-pref-windowtitle'
p479
NsS'symbian8-uid'
p480
NsS'symbian-icon-svg'
p481
NsS'android-unsigned'
p482
NsS'brew-priviledges'
p483
NsS'ngi-cert'
p484
NsS'brew-icon-small'
p485
NsS'psp-dlgpic2'
p486
NsS'bada-icon'
p487
NsS'psp-dlgpic0'
p488
NsS'ngi-gcce-loader'
p489
NsS'psp-pic0'
p490
NsS'psp-pic1'
p491
NsS'iphone-icon'
p492
NsS'psp-icon0'
p493
NsS'psp-icon1'
p494
NsS'uiq3-icon3-format'
p495
NsS'version-major'
p496
NsS'iphone_bundle_localisations'
p497
NsS'winmobile-icon'
p498
NsS'symbian-keypwd'
p499
NsS'iphone-no-splash'
p500
NsS'playbook-access-shared'
p501
NsS'psp-dlghealthwarning'
p502
NsS'iphone-link-libs'
p503
(lp504
sS'ngi-filemanager-dll'
p505
NsS'iphone-splash'
p506
NsS'nds-bannertitle-ge'
p507
NsS'android_icon_gallery'
p508
NsS'iphone-app-fonts'
p509
NsS'symbian-icon2-mask'
p510
NsS'iphone-sign-for-distribution'
p511
NsS'psp-dlgprotectdocument'
p512
NsS'winmobile-cab-compress'
p513
NsS'uiq3-icon3'
p514
NsS'uiq3-icon1'
p515
NsS'itunes-artwork'
p516
NsS'win32-icon'
p517
NsS'assets'
p518
NsS'symbian-key'
p519
NsS'app-icf'
p520
NsS'ngi-arena-rsc'
p521
NsS'brew-compress-loader'
p522
NsS'uiq3-icon2-mask'
p523
NsS'symbian-icon2-mask-black'
p524
NsS'android-extra-strings'
p525
NsS'symbian-run-on-install'
p526
NsS'iphone-bundle-localisations'
p527
Nssg227
g267
sbssS'platform'
p528
S'S3E'
p529
sg51
S'1.0'
p530
sS'arcade_platform'
p531
g4
sS'extensions'
p532
(dp533
sS'source_groups_tree'
p534
(dp535
S'(box2d)'
p536
(dp537
S'Collision'
p538
(dp539
S'c:/git/adl-stem/libraries/Box2D/Collision/b2DynamicTree.h'
p540
(lp541
I1
a(dp542
asS'c:/git/adl-stem/libraries/Box2D/Collision/b2BroadPhase.cpp'
p543
(lp544
I1
ag542
asS'c:/git/adl-stem/libraries/Box2D/Collision/b2CollidePolygon.cpp'
p545
(lp546
I1
ag542
asS'c:/git/adl-stem/libraries/Box2D/Collision/b2Collision.cpp'
p547
(lp548
I1
ag542
asS'c:/git/adl-stem/libraries/Box2D/Collision/b2Distance.cpp'
p549
(lp550
I1
ag542
asS'c:/git/adl-stem/libraries/Box2D/Collision/b2Collision.h'
p551
(lp552
I1
ag542
asS'c:/git/adl-stem/libraries/Box2D/Collision/b2BroadPhase.h'
p553
(lp554
I1
ag542
asS'c:/git/adl-stem/libraries/Box2D/Collision/b2Distance.h'
p555
(lp556
I1
ag542
asS'Shapes'
p557
(dp558
S'c:/git/adl-stem/libraries/Box2D/Collision/Shapes/b2Shape.h'
p559
(lp560
I1
ag542
asS'c:/git/adl-stem/libraries/Box2D/Collision/Shapes/b2CircleShape.h'
p561
(lp562
I1
ag542
asS'c:/git/adl-stem/libraries/Box2D/Collision/Shapes/b2EdgeShape.cpp'
p563
(lp564
I1
ag542
asS'c:/git/adl-stem/libraries/Box2D/Collision/Shapes/b2PolygonShape.cpp'
p565
(lp566
I1
ag542
asS'c:/git/adl-stem/libraries/Box2D/Collision/Shapes/b2PolygonShape.h'
p567
(lp568
I1
ag542
asS'c:/git/adl-stem/libraries/Box2D/Collision/Shapes/b2LoopShape.h'
p569
(lp570
I1
ag542
asS'c:/git/adl-stem/libraries/Box2D/Collision/Shapes/b2LoopShape.cpp'
p571
(lp572
I1
ag542
asS'c:/git/adl-stem/libraries/Box2D/Collision/Shapes/b2EdgeShape.h'
p573
(lp574
I1
ag542
asS'c:/git/adl-stem/libraries/Box2D/Collision/Shapes/b2CircleShape.cpp'
p575
(lp576
I1
ag542
assS'c:/git/adl-stem/libraries/Box2D/Collision/b2CollideEdge.cpp'
p577
(lp578
I1
ag542
asS'c:/git/adl-stem/libraries/Box2D/Collision/b2DynamicTree.cpp'
p579
(lp580
I1
ag542
asS'c:/git/adl-stem/libraries/Box2D/Collision/b2CollideCircle.cpp'
p581
(lp582
I1
ag542
asS'c:/git/adl-stem/libraries/Box2D/Collision/b2TimeOfImpact.cpp'
p583
(lp584
I1
ag542
asS'c:/git/adl-stem/libraries/Box2D/Collision/b2TimeOfImpact.h'
p585
(lp586
I1
ag542
assS'c:/git/adl-stem/libraries/box2d.mkf'
p587
(lp588
I1
a(dp589
asS'Rope'
p590
(dp591
S'c:/git/adl-stem/libraries/Box2D/Rope/b2Rope.cpp'
p592
(lp593
I1
ag542
asS'c:/git/adl-stem/libraries/Box2D/Rope/b2Rope.h'
p594
(lp595
I1
ag542
assS'c:/git/adl-stem/libraries/Box2D/Box2D.h'
p596
(lp597
I1
ag542
asS'Common'
p598
(dp599
S'c:/git/adl-stem/libraries/Box2D/Common/b2Settings.cpp'
p600
(lp601
I1
ag542
asS'c:/git/adl-stem/libraries/Box2D/Common/b2Timer.h'
p602
(lp603
I1
ag542
asS'c:/git/adl-stem/libraries/Box2D/Common/b2BlockAllocator.cpp'
p604
(lp605
I1
ag542
asS'c:/git/adl-stem/libraries/Box2D/Common/b2Math.cpp'
p606
(lp607
I1
ag542
asS'c:/git/adl-stem/libraries/Box2D/Common/b2Draw.cpp'
p608
(lp609
I1
ag542
asS'c:/git/adl-stem/libraries/Box2D/Common/b2BlockAllocator.h'
p610
(lp611
I1
ag542
asS'c:/git/adl-stem/libraries/Box2D/Common/b2GrowableStack.h'
p612
(lp613
I1
ag542
asS'c:/git/adl-stem/libraries/Box2D/Common/b2Math.h'
p614
(lp615
I1
ag542
asS'c:/git/adl-stem/libraries/Box2D/Common/b2Timer.cpp'
p616
(lp617
I1
ag542
asS'c:/git/adl-stem/libraries/Box2D/Common/b2Settings.h'
p618
(lp619
I1
ag542
asS'c:/git/adl-stem/libraries/Box2D/Common/b2StackAllocator.cpp'
p620
(lp621
I1
ag542
asS'c:/git/adl-stem/libraries/Box2D/Common/b2StackAllocator.h'
p622
(lp623
I1
ag542
asS'c:/git/adl-stem/libraries/Box2D/Common/b2Draw.h'
p624
(lp625
I1
ag542
assS'Dynamics'
p626
(dp627
S'c:/git/adl-stem/libraries/Box2D/Dynamics/b2Fixture.cpp'
p628
(lp629
I1
ag542
asS'c:/git/adl-stem/libraries/Box2D/Dynamics/b2Island.h'
p630
(lp631
I1
ag542
asS'Contacts'
p632
(dp633
S'c:/git/adl-stem/libraries/Box2D/Dynamics/Contacts/b2Contact.cpp'
p634
(lp635
I1
ag542
asS'c:/git/adl-stem/libraries/Box2D/Dynamics/Contacts/b2EdgeAndPolygonContact.cpp'
p636
(lp637
I1
ag542
asS'c:/git/adl-stem/libraries/Box2D/Dynamics/Contacts/b2LoopAndPolygonContact.h'
p638
(lp639
I1
ag542
asS'c:/git/adl-stem/libraries/Box2D/Dynamics/Contacts/b2PolygonContact.h'
p640
(lp641
I1
ag542
asS'c:/git/adl-stem/libraries/Box2D/Dynamics/Contacts/b2PolygonAndCircleContact.cpp'
p642
(lp643
I1
ag542
asS'c:/git/adl-stem/libraries/Box2D/Dynamics/Contacts/b2PolygonContact.cpp'
p644
(lp645
I1
ag542
asS'c:/git/adl-stem/libraries/Box2D/Dynamics/Contacts/b2LoopAndPolygonContact.cpp'
p646
(lp647
I1
ag542
asS'c:/git/adl-stem/libraries/Box2D/Dynamics/Contacts/b2CircleContact.h'
p648
(lp649
I1
ag542
asS'c:/git/adl-stem/libraries/Box2D/Dynamics/Contacts/b2EdgeAndCircleContact.h'
p650
(lp651
I1
ag542
asS'c:/git/adl-stem/libraries/Box2D/Dynamics/Contacts/b2ContactSolver.h'
p652
(lp653
I1
ag542
asS'c:/git/adl-stem/libraries/Box2D/Dynamics/Contacts/b2PolygonAndCircleContact.h'
p654
(lp655
I1
ag542
asS'c:/git/adl-stem/libraries/Box2D/Dynamics/Contacts/b2Contact.h'
p656
(lp657
I1
ag542
asS'c:/git/adl-stem/libraries/Box2D/Dynamics/Contacts/b2CircleContact.cpp'
p658
(lp659
I1
ag542
asS'c:/git/adl-stem/libraries/Box2D/Dynamics/Contacts/b2LoopAndCircleContact.h'
p660
(lp661
I1
ag542
asS'c:/git/adl-stem/libraries/Box2D/Dynamics/Contacts/b2EdgeAndPolygonContact.h'
p662
(lp663
I1
ag542
asS'c:/git/adl-stem/libraries/Box2D/Dynamics/Contacts/b2LoopAndCircleContact.cpp'
p664
(lp665
I1
ag542
asS'c:/git/adl-stem/libraries/Box2D/Dynamics/Contacts/b2EdgeAndCircleContact.cpp'
p666
(lp667
I1
ag542
asS'c:/git/adl-stem/libraries/Box2D/Dynamics/Contacts/b2ContactSolver.cpp'
p668
(lp669
I1
ag542
assS'c:/git/adl-stem/libraries/Box2D/Dynamics/b2World.h'
p670
(lp671
I1
ag542
asS'Joints'
p672
(dp673
S'c:/git/adl-stem/libraries/Box2D/Dynamics/Joints/b2RevoluteJoint.cpp'
p674
(lp675
I1
ag542
asS'c:/git/adl-stem/libraries/Box2D/Dynamics/Joints/b2Joint.h'
p676
(lp677
I1
ag542
asS'c:/git/adl-stem/libraries/Box2D/Dynamics/Joints/b2RopeJoint.cpp'
p678
(lp679
I1
ag542
asS'c:/git/adl-stem/libraries/Box2D/Dynamics/Joints/b2GearJoint.cpp'
p680
(lp681
I1
ag542
asS'c:/git/adl-stem/libraries/Box2D/Dynamics/Joints/b2MouseJoint.h'
p682
(lp683
I1
ag542
asS'c:/git/adl-stem/libraries/Box2D/Dynamics/Joints/b2WheelJoint.h'
p684
(lp685
I1
ag542
asS'c:/git/adl-stem/libraries/Box2D/Dynamics/Joints/b2PrismaticJoint.h'
p686
(lp687
I1
ag542
asS'c:/git/adl-stem/libraries/Box2D/Dynamics/Joints/b2PrismaticJoint.cpp'
p688
(lp689
I1
ag542
asS'c:/git/adl-stem/libraries/Box2D/Dynamics/Joints/b2WheelJoint.cpp'
p690
(lp691
I1
ag542
asS'c:/git/adl-stem/libraries/Box2D/Dynamics/Joints/b2FrictionJoint.cpp'
p692
(lp693
I1
ag542
asS'c:/git/adl-stem/libraries/Box2D/Dynamics/Joints/b2DistanceJoint.cpp'
p694
(lp695
I1
ag542
asS'c:/git/adl-stem/libraries/Box2D/Dynamics/Joints/b2Joint.cpp'
p696
(lp697
I1
ag542
asS'c:/git/adl-stem/libraries/Box2D/Dynamics/Joints/b2WeldJoint.h'
p698
(lp699
I1
ag542
asS'c:/git/adl-stem/libraries/Box2D/Dynamics/Joints/b2MouseJoint.cpp'
p700
(lp701
I1
ag542
asS'c:/git/adl-stem/libraries/Box2D/Dynamics/Joints/b2DistanceJoint.h'
p702
(lp703
I1
ag542
asS'c:/git/adl-stem/libraries/Box2D/Dynamics/Joints/b2RevoluteJoint.h'
p704
(lp705
I1
ag542
asS'c:/git/adl-stem/libraries/Box2D/Dynamics/Joints/b2FrictionJoint.h'
p706
(lp707
I1
ag542
asS'c:/git/adl-stem/libraries/Box2D/Dynamics/Joints/b2GearJoint.h'
p708
(lp709
I1
ag542
asS'c:/git/adl-stem/libraries/Box2D/Dynamics/Joints/b2WeldJoint.cpp'
p710
(lp711
I1
ag542
asS'c:/git/adl-stem/libraries/Box2D/Dynamics/Joints/b2RopeJoint.h'
p712
(lp713
I1
ag542
asS'c:/git/adl-stem/libraries/Box2D/Dynamics/Joints/b2PulleyJoint.h'
p714
(lp715
I1
ag542
asS'c:/git/adl-stem/libraries/Box2D/Dynamics/Joints/b2PulleyJoint.cpp'
p716
(lp717
I1
ag542
assS'c:/git/adl-stem/libraries/Box2D/Dynamics/b2Body.cpp'
p718
(lp719
I1
ag542
asS'c:/git/adl-stem/libraries/Box2D/Dynamics/b2Body.h'
p720
(lp721
I1
ag542
asS'c:/git/adl-stem/libraries/Box2D/Dynamics/b2World.cpp'
p722
(lp723
I1
ag542
asS'c:/git/adl-stem/libraries/Box2D/Dynamics/b2Fixture.h'
p724
(lp725
I1
ag542
asS'c:/git/adl-stem/libraries/Box2D/Dynamics/b2ContactManager.h'
p726
(lp727
I1
ag542
asS'c:/git/adl-stem/libraries/Box2D/Dynamics/b2TimeStep.h'
p728
(lp729
I1
ag542
asS'c:/git/adl-stem/libraries/Box2D/Dynamics/b2WorldCallbacks.h'
p730
(lp731
I1
ag542
asS'c:/git/adl-stem/libraries/Box2D/Dynamics/b2Island.cpp'
p732
(lp733
I1
ag542
asS'c:/git/adl-stem/libraries/Box2D/Dynamics/b2WorldCallbacks.cpp'
p734
(lp735
I1
ag542
asS'c:/git/adl-stem/libraries/Box2D/Dynamics/b2ContactManager.cpp'
p736
(lp737
I1
ag542
assssS'files'
p738
(dp739
S'b2GrowableStack.h'
p740
(g612
(lp741
g536
ag598
ag542
tp742
sS'b2World.cpp'
p743
(g722
(lp744
g536
ag626
ag542
tp745
sS'dlfcn.h'
p746
(S'c:/marmalade/6.0/s3e/h/std/dlfcn.h'
p747
(lp748
S"'Marmalade System (S3E)'"
p749
aS'stdc headers'
p750
a(dp751
tp752
sS'iterator'
p753
(S'c:/marmalade/6.0/s3e/h/std/c++/iterator'
p754
(lp755
g749
aS'stdc headers'
p756
aS'c++'
p757
ag751
tp758
sS'math_rvct.h'
p759
(S'c:/marmalade/6.0/s3e/h/std/math_rvct.h'
p760
g748
g751
tp761
sS'pthread_alloc'
p762
(S'c:/marmalade/6.0/s3e/h/std/c++/pthread_alloc'
p763
g755
g751
tp764
sS'ctype.h'
p765
(S'c:/marmalade/6.0/s3e/h/std/ctype.h'
p766
g748
g751
tp767
sS'b2PrismaticJoint.h'
p768
(g686
(lp769
g536
aS'Dynamics'
p770
ag672
ag542
tp771
sS'errno.h'
p772
(S'c:/marmalade/6.0/s3e/h/std/errno.h'
p773
g748
g751
tp774
sS'b2Joint.cpp'
p775
(g696
g769
g542
tp776
sS'b2Rope.cpp'
p777
(g592
(lp778
g536
ag590
ag542
tp779
sS's3ePointer.h'
p780
(S'c:/marmalade/6.0/s3e/h/s3ePointer.h'
p781
(lp782
g749
ag751
tp783
sS'dirent.h'
p784
(S'c:/marmalade/6.0/s3e/h/std/dirent.h'
p785
g748
g751
tp786
sS'b2LoopShape.h'
p787
(g569
(lp788
g536
ag538
ag557
ag542
tp789
sS'getopt.h'
p790
(S'c:/marmalade/6.0/s3e/h/std/getopt.h'
p791
g748
g751
tp792
sS'typeinfo'
p793
(S'c:/marmalade/6.0/s3e/h/std/c++/typeinfo'
p794
g755
g751
tp795
sS'b2MouseJoint.h'
p796
(g682
g769
g542
tp797
sS'box2d.mkf'
p798
(g587
(lp799
g536
ag589
tp800
sS'cfloat'
p801
(S'c:/marmalade/6.0/s3e/h/std/c++/cfloat'
p802
g755
g751
tp803
sS'valarray'
p804
(S'c:/marmalade/6.0/s3e/h/std/c++/valarray'
p805
g755
g751
tp806
sS's3e.mkf'
p807
(S'c:/marmalade/6.0/s3e/s3e.mkf'
p808
g782
(dp809
tp810
sS'stdio_streambuf'
p811
(S'c:/marmalade/6.0/s3e/h/std/c++/stdio_streambuf'
p812
g755
g751
tp813
sS's3eGL.h'
p814
(S'c:/marmalade/6.0/s3e/h/s3eGL.h'
p815
g782
g751
tp816
sS'wctype.h'
p817
(S'c:/marmalade/6.0/s3e/h/std/wctype.h'
p818
g748
g751
tp819
sS'sched.h'
p820
(S'c:/marmalade/6.0/s3e/h/std/sched.h'
p821
g748
g751
tp822
sS'b2RevoluteJoint.h'
p823
(g704
g769
g542
tp824
sS'cassert'
p825
(S'c:/marmalade/6.0/s3e/h/std/c++/cassert'
p826
g755
g751
tp827
sS'grp.h'
p828
(S'c:/marmalade/6.0/s3e/h/std/grp.h'
p829
g748
g751
tp830
sS'b2PulleyJoint.h'
p831
(g714
g769
g542
tp832
sS'signal_1.h'
p833
(S'c:/marmalade/6.0/s3e/h/std/sys/signal.h'
p834
(lp835
g749
aS'stdc headers'
p836
aS'sys'
p837
ag751
tp838
sS'b2Island.cpp'
p839
(g732
g744
g542
tp840
sS'b2Distance.cpp'
p841
(g549
(lp842
g536
aS'Collision'
p843
ag542
tp844
sS'poll.h'
p845
(S'c:/marmalade/6.0/s3e/h/std/poll.h'
p846
g748
g751
tp847
sS'pthread.h'
p848
(S'c:/marmalade/6.0/s3e/h/std/pthread.h'
p849
g748
g751
tp850
sS'b2EdgeAndPolygonContact.cpp'
p851
(g636
(lp852
g536
aS'Dynamics'
p853
ag632
ag542
tp854
sS'iostream.h'
p855
(S'c:/marmalade/6.0/s3e/h/std/c++/iostream.h'
p856
g755
g751
tp857
sS's3eOSReadString.h'
p858
(S'c:/marmalade/6.0/s3e/h/ext/s3eOSReadString.h'
p859
(lp860
g749
aS'Extensions'
p861
ag751
tp862
sS'stdint.h'
p863
(S'c:/marmalade/6.0/s3e/h/std/stdint.h'
p864
g748
g751
tp865
sS'b2Draw.h'
p866
(g624
g741
g542
tp867
sS'string'
p868
(S'c:/marmalade/6.0/s3e/h/std/c++/string'
p869
g755
g751
tp870
sS'b2WheelJoint.h'
p871
(g684
g769
g542
tp872
sS'functional'
p873
(S'c:/marmalade/6.0/s3e/h/std/c++/functional'
p874
g755
g751
tp875
sS'b2DynamicTree.cpp'
p876
(g579
g842
g542
tp877
sS'param.h'
p878
(S'c:/marmalade/6.0/s3e/h/std/sys/param.h'
p879
g835
g751
tp880
sS'b2CircleContact.cpp'
p881
(g658
g852
g542
tp882
sS's3eSocket.h'
p883
(S'c:/marmalade/6.0/s3e/h/s3eSocket.h'
p884
g782
g751
tp885
sS'b2WorldCallbacks.h'
p886
(g730
g744
g542
tp887
sS'b2Timer.cpp'
p888
(g616
g741
g542
tp889
sS'wait.h'
p890
(S'c:/marmalade/6.0/s3e/h/std/sys/wait.h'
p891
g835
g751
tp892
sS'iomanip'
p893
(S'c:/marmalade/6.0/s3e/h/std/c++/iomanip'
p894
g755
g751
tp895
sS'istream.h'
p896
(S'c:/marmalade/6.0/s3e/h/std/c++/istream.h'
p897
g755
g751
tp898
sS'ipc.h'
p899
(S'c:/marmalade/6.0/s3e/h/std/sys/ipc.h'
p900
g835
g751
tp901
sS'algorithm'
p902
(S'c:/marmalade/6.0/s3e/h/std/c++/algorithm'
p903
g755
g751
tp904
sS'b2LoopAndCircleContact.h'
p905
(g660
g852
g542
tp906
sS'cwchar'
p907
(S'c:/marmalade/6.0/s3e/h/std/c++/cwchar'
p908
g755
g751
tp909
sS'b2TimeOfImpact.h'
p910
(g585
g842
g542
tp911
sS'semaphore.h'
p912
(S'c:/marmalade/6.0/s3e/h/std/semaphore.h'
p913
g748
g751
tp914
sS'iosfwd'
p915
(S'c:/marmalade/6.0/s3e/h/std/c++/iosfwd'
p916
g755
g751
tp917
sS's3e.h'
p918
(S'c:/marmalade/6.0/s3e/h/s3e.h'
p919
g782
g751
tp920
sS'gl2.h'
p921
(S'c:/marmalade/6.0/s3e/h/GLES2/gl2.h'
p922
(lp923
g749
aS'GL'
p924
aS'GLES 2.0'
p925
ag751
tp926
sS'b2FrictionJoint.cpp'
p927
(g692
g769
g542
tp928
sS'ctime'
p929
(S'c:/marmalade/6.0/s3e/h/std/c++/ctime'
p930
g755
g751
tp931
sS'dir.h'
p932
(S'c:/marmalade/6.0/s3e/h/std/sys/dir.h'
p933
g835
g751
tp934
sS's3e.icf'
p935
(S'c:/marmalade/6.0/s3e/s3e.icf'
p936
g782
g751
tp937
sS'b2EdgeAndPolygonContact.h'
p938
(g662
g852
g542
tp939
sS'locale.h'
p940
(S'c:/marmalade/6.0/s3e/h/std/locale.h'
p941
g748
g751
tp942
sS'b2Fixture.cpp'
p943
(g628
g744
g542
tp944
sS'b2Draw.cpp'
p945
(g608
g741
g542
tp946
sS'b2Rope.h'
p947
(g594
g778
g542
tp948
sS'b2Joint.h'
p949
(g676
g769
g542
tp950
sS'ostream'
p951
(S'c:/marmalade/6.0/s3e/h/std/c++/ostream'
p952
g755
g751
tp953
sS'termios.h'
p954
(S'c:/marmalade/6.0/s3e/h/std/termios.h'
p955
g748
g751
tp956
sS'cwctype'
p957
(S'c:/marmalade/6.0/s3e/h/std/c++/cwctype'
p958
g755
g751
tp959
sS'streambuf.h'
p960
(S'c:/marmalade/6.0/s3e/h/std/c++/streambuf.h'
p961
g755
g751
tp962
sS'Box2D.h'
p963
(g596
g799
g542
tp964
sS'sstream'
p965
(S'c:/marmalade/6.0/s3e/h/std/c++/sstream'
p966
g755
g751
tp967
sS'mem.h'
p968
(S'c:/marmalade/6.0/s3e/h/std/c++/mem.h'
p969
g755
g751
tp970
sS's3eMetrics.h'
p971
(S'c:/marmalade/6.0/s3e/h/ext/s3eMetrics.h'
p972
g860
g751
tp973
sS'slist'
p974
(S'c:/marmalade/6.0/s3e/h/std/c++/slist'
p975
g755
g751
tp976
sS's3eCompass.h'
p977
(S'c:/marmalade/6.0/s3e/h/s3eCompass.h'
p978
g782
g751
tp979
sS'prctl.h'
p980
(S'c:/marmalade/6.0/s3e/h/std/sys/prctl.h'
p981
g835
g751
tp982
sS's3eOSExec.h'
p983
(S'c:/marmalade/6.0/s3e/h/ext/s3eOSExec.h'
p984
g860
g751
tp985
sS'locale'
p986
(S'c:/marmalade/6.0/s3e/h/std/c++/locale'
p987
g755
g751
tp988
sS'list'
p989
(S'c:/marmalade/6.0/s3e/h/std/c++/list'
p990
g755
g751
tp991
sS'b2PolygonShape.h'
p992
(g567
g788
g542
tp993
sS'climits'
p994
(S'c:/marmalade/6.0/s3e/h/std/c++/climits'
p995
g755
g751
tp996
sS's3e.config.txt'
p997
(S'c:/marmalade/6.0/s3e/s3e.config.txt'
p998
g782
g751
tp999
sS'numeric'
p1000
(S'c:/marmalade/6.0/s3e/h/std/c++/numeric'
p1001
g755
g751
tp1002
sS'assert.h'
p1003
(S'c:/marmalade/6.0/s3e/h/std/assert.h'
p1004
g748
g751
tp1005
sS'cstdio'
p1006
(S'c:/marmalade/6.0/s3e/h/std/c++/cstdio'
p1007
g755
g751
tp1008
sS'b2CircleShape.cpp'
p1009
(g575
g788
g542
tp1010
sS's3eVibra.h'
p1011
(S'c:/marmalade/6.0/s3e/h/s3eVibra.h'
p1012
g782
g751
tp1013
sS'fnmatch.h'
p1014
(S'c:/marmalade/6.0/s3e/h/std/fnmatch.h'
p1015
g748
g751
tp1016
sS'stack'
p1017
(S'c:/marmalade/6.0/s3e/h/std/c++/stack'
p1018
g755
g751
tp1019
sS'strings.h'
p1020
(S'c:/marmalade/6.0/s3e/h/std/strings.h'
p1021
g748
g751
tp1022
sS'b2Body.h'
p1023
(g720
g744
g542
tp1024
sS'b2PolygonContact.cpp'
p1025
(g644
g852
g542
tp1026
sS'b2PulleyJoint.cpp'
p1027
(g716
g769
g542
tp1028
sS'b2WeldJoint.cpp'
p1029
(g710
g769
g542
tp1030
sS'b2CollideCircle.cpp'
p1031
(g581
g842
g542
tp1032
sS's3eImagePicker.h'
p1033
(S'c:/marmalade/6.0/s3e/h/ext/s3eImagePicker.h'
p1034
g860
g751
tp1035
sS's3eExt.h'
p1036
(S'c:/marmalade/6.0/s3e/h/s3eExt.h'
p1037
g782
g751
tp1038
sS'vector'
p1039
(S'c:/marmalade/6.0/s3e/h/std/c++/vector'
p1040
g755
g751
tp1041
sS'cstdlib'
p1042
(S'c:/marmalade/6.0/s3e/h/std/c++/cstdlib'
p1043
g755
g751
tp1044
sS's3eSurface.h'
p1045
(S'c:/marmalade/6.0/s3e/h/s3eSurface.h'
p1046
g782
g751
tp1047
sS'new'
p1048
(S'c:/marmalade/6.0/s3e/h/std/c++/new'
p1049
g755
g751
tp1050
sS'stdlib.h'
p1051
(S'c:/marmalade/6.0/s3e/h/std/stdlib.h'
p1052
g748
g751
tp1053
sS'utility'
p1054
(S'c:/marmalade/6.0/s3e/h/std/c++/utility'
p1055
g755
g751
tp1056
sS'stddef.h'
p1057
(S'c:/marmalade/6.0/s3e/h/std/stddef.h'
p1058
g748
g751
tp1059
sS's3eWindow.h'
p1060
(S'c:/marmalade/6.0/s3e/h/ext/s3eWindow.h'
p1061
g860
g751
tp1062
sS'b2LoopShape.cpp'
p1063
(g571
g788
g542
tp1064
sS'b2LoopAndPolygonContact.h'
p1065
(g638
g852
g542
tp1066
sS'iostream'
p1067
(S'c:/marmalade/6.0/s3e/h/std/c++/iostream'
p1068
g755
g751
tp1069
sS'b2CircleShape.h'
p1070
(g561
g788
g542
tp1071
sS'b2Contact.h'
p1072
(g656
g852
g542
tp1073
sS'glplatform.h'
p1074
(S'c:/marmalade/6.0/s3e/h/GLES/glplatform.h'
p1075
(lp1076
g749
aS'GL'
p1077
aS'GLES 1.x'
p1078
ag751
tp1079
sS'glob.h'
p1080
(S'c:/marmalade/6.0/s3e/h/std/glob.h'
p1081
g748
g751
tp1082
sS'stdio.h'
p1083
(S'c:/marmalade/6.0/s3e/h/std/stdio.h'
p1084
g748
g751
tp1085
sS'setjmp_win32.h'
p1086
(S'c:/marmalade/6.0/s3e/h/std/setjmp_win32.h'
p1087
g748
g751
tp1088
sS'unistd.h'
p1089
(S'c:/marmalade/6.0/s3e/h/std/unistd.h'
p1090
g748
g751
tp1091
sS's3eSecureStorage.h'
p1092
(S'c:/marmalade/6.0/s3e/h/s3eSecureStorage.h'
p1093
g782
g751
tp1094
sS'string.h'
p1095
(S'c:/marmalade/6.0/s3e/h/std/string.h'
p1096
g748
g751
tp1097
sS'alloca.h'
p1098
(S'c:/marmalade/6.0/s3e/h/std/alloca.h'
p1099
g748
g751
tp1100
sS'b2ContactSolver.cpp'
p1101
(g668
g852
g542
tp1102
sS'b2Island.h'
p1103
(g630
g744
g542
tp1104
sS'byteswap.h'
p1105
(S'c:/marmalade/6.0/s3e/h/std/byteswap.h'
p1106
g748
g751
tp1107
sS'b2ContactSolver.h'
p1108
(g652
g852
g542
tp1109
sS'b2Settings.cpp'
p1110
(g600
g741
g542
tp1111
sS'b2World.h'
p1112
(g670
g744
g542
tp1113
sS'iomanip.h'
p1114
(S'c:/marmalade/6.0/s3e/h/std/c++/iomanip.h'
p1115
g755
g751
tp1116
sS'limits'
p1117
(S'c:/marmalade/6.0/s3e/h/std/c++/limits'
p1118
g755
g751
tp1119
sS'b2PolygonAndCircleContact.cpp'
p1120
(g642
g852
g542
tp1121
sS'cstddef'
p1122
(S'c:/marmalade/6.0/s3e/h/std/c++/cstddef'
p1123
g755
g751
tp1124
sS'stdiostream.h'
p1125
(S'c:/marmalade/6.0/s3e/h/std/c++/stdiostream.h'
p1126
g755
g751
tp1127
sS'gl2platform.h'
p1128
(S'c:/marmalade/6.0/s3e/h/GLES2/gl2platform.h'
p1129
g923
g751
tp1130
sS'b2StackAllocator.cpp'
p1131
(g620
g741
g542
tp1132
sS'ucontext.h'
p1133
(S'c:/marmalade/6.0/s3e/h/std/ucontext.h'
p1134
g748
g751
tp1135
sS'queue'
p1136
(S'c:/marmalade/6.0/s3e/h/std/c++/queue'
p1137
g755
g751
tp1138
sS'fstream.h'
p1139
(S'c:/marmalade/6.0/s3e/h/std/c++/fstream.h'
p1140
g755
g751
tp1141
sS'mman.h'
p1142
(S'c:/marmalade/6.0/s3e/h/std/sys/mman.h'
p1143
g835
g751
tp1144
sS's3eContacts.h'
p1145
(S'c:/marmalade/6.0/s3e/h/s3eContacts.h'
p1146
g782
g751
tp1147
sS'time_1.h'
p1148
(S'c:/marmalade/6.0/s3e/h/std/sys/time.h'
p1149
g835
g751
tp1150
sS's3eLicense.h'
p1151
(S'c:/marmalade/6.0/s3e/h/s3eLicense.h'
p1152
g782
g751
tp1153
sS'fstream'
p1154
(S'c:/marmalade/6.0/s3e/h/std/c++/fstream'
p1155
g755
g751
tp1156
sS's3eCameraCapture.h'
p1157
(S'c:/marmalade/6.0/s3e/h/ext/s3eCameraCapture.h'
p1158
g860
g751
tp1159
sS'eglext.h'
p1160
(S'c:/marmalade/6.0/s3e/h/EGL/eglext.h'
p1161
(lp1162
g749
aS'GL'
p1163
aS'EGL'
p1164
ag751
tp1165
sS'bitset'
p1166
(S'c:/marmalade/6.0/s3e/h/std/c++/bitset'
p1167
g755
g751
tp1168
sS'sendfile.h'
p1169
(S'c:/marmalade/6.0/s3e/h/std/sys/sendfile.h'
p1170
g835
g751
tp1171
sS's3eTimer.h'
p1172
(S'c:/marmalade/6.0/s3e/h/s3eTimer.h'
p1173
g782
g751
tp1174
sS'socket.h'
p1175
(S'c:/marmalade/6.0/s3e/h/std/sys/socket.h'
p1176
g835
g751
tp1177
sS'streambuf'
p1178
(S'c:/marmalade/6.0/s3e/h/std/c++/streambuf'
p1179
g755
g751
tp1180
sS'malloc.h'
p1181
(S'c:/marmalade/6.0/s3e/h/std/malloc.h'
p1182
g748
g751
tp1183
sS'b2GearJoint.h'
p1184
(g708
g769
g542
tp1185
sS'cstdarg'
p1186
(S'c:/marmalade/6.0/s3e/h/std/c++/cstdarg'
p1187
g755
g751
tp1188
sS'b2BlockAllocator.h'
p1189
(g610
g741
g542
tp1190
sS'stdarg.h'
p1191
(S'c:/marmalade/6.0/s3e/h/std/stdarg.h'
p1192
g748
g751
tp1193
sS'strstream.h'
p1194
(S'c:/marmalade/6.0/s3e/h/std/c++/strstream.h'
p1195
g755
g751
tp1196
sS'shm.h'
p1197
(S'c:/marmalade/6.0/s3e/h/std/sys/shm.h'
p1198
g835
g751
tp1199
sS'set'
p1200
(S'c:/marmalade/6.0/s3e/h/std/c++/set'
p1201
g755
g751
tp1202
sS'exception.h'
p1203
(S'c:/marmalade/6.0/s3e/h/std/c++/exception.h'
p1204
g755
g751
tp1205
sS'endian.h'
p1206
(S'c:/marmalade/6.0/s3e/h/std/endian.h'
p1207
g748
g751
tp1208
sS'gl2ext.h'
p1209
(S'c:/marmalade/6.0/s3e/h/GLES2/gl2ext.h'
p1210
g923
g751
tp1211
sS'un.h'
p1212
(S'c:/marmalade/6.0/s3e/h/std/sys/un.h'
p1213
g835
g751
tp1214
sS'b2EdgeAndCircleContact.cpp'
p1215
(g666
g852
g542
tp1216
sS'b2MouseJoint.cpp'
p1217
(g700
g769
g542
tp1218
sS's3eCompression.h'
p1219
(S'c:/marmalade/6.0/s3e/h/s3eCompression.h'
p1220
g782
g751
tp1221
sS's3eSound.h'
p1222
(S'c:/marmalade/6.0/s3e/h/s3eSound.h'
p1223
g782
g751
tp1224
sS'b2PolygonShape.cpp'
p1225
(g565
g788
g542
tp1226
sS'b2PrismaticJoint.cpp'
p1227
(g688
g769
g542
tp1228
sS'file.h'
p1229
(S'c:/marmalade/6.0/s3e/h/std/sys/file.h'
p1230
g835
g751
tp1231
sS'b2Timer.h'
p1232
(g602
g741
g542
tp1233
sS's3eIOSBackgroundAudio.h'
p1234
(S'c:/marmalade/6.0/s3e/h/ext/s3eIOSBackgroundAudio.h'
p1235
g860
g751
tp1236
sS'b2Collision.cpp'
p1237
(g547
g842
g542
tp1238
sS'cstring'
p1239
(S'c:/marmalade/6.0/s3e/h/std/c++/cstring'
p1240
g755
g751
tp1241
sS'cerrno'
p1242
(S'c:/marmalade/6.0/s3e/h/std/c++/cerrno'
p1243
g755
g751
tp1244
sS'b2DynamicTree.h'
p1245
(g540
g842
g542
tp1246
sS's3eCamera.h'
p1247
(S'c:/marmalade/6.0/s3e/h/s3eCamera.h'
p1248
g782
g751
tp1249
sS'clocale'
p1250
(S'c:/marmalade/6.0/s3e/h/std/c++/clocale'
p1251
g755
g751
tp1252
sS'memory'
p1253
(S'c:/marmalade/6.0/s3e/h/std/c++/memory'
p1254
g755
g751
tp1255
sS'b2Collision.h'
p1256
(g551
g842
g542
tp1257
sS'egl_1.h'
p1258
(S'c:/marmalade/6.0/s3e/h/GLES/egl.h'
p1259
g1076
g751
tp1260
sS'istream'
p1261
(S'c:/marmalade/6.0/s3e/h/std/c++/istream'
p1262
g755
g751
tp1263
sS'deque'
p1264
(S'c:/marmalade/6.0/s3e/h/std/c++/deque'
p1265
g755
g751
tp1266
sS'b2WheelJoint.cpp'
p1267
(g690
g769
g542
tp1268
sS'gl.h'
p1269
(S'c:/marmalade/6.0/s3e/h/GLES/gl.h'
p1270
g1076
g751
tp1271
sS's3eCrypto.h'
p1272
(S'c:/marmalade/6.0/s3e/h/s3eCrypto.h'
p1273
g782
g751
tp1274
sS's3eKeyboard.h'
p1275
(S'c:/marmalade/6.0/s3e/h/s3eKeyboard.h'
p1276
g782
g751
tp1277
sS's3eSMS.h'
p1278
(S'c:/marmalade/6.0/s3e/h/ext/s3eSMS.h'
p1279
g860
g751
tp1280
sS'cctype'
p1281
(S'c:/marmalade/6.0/s3e/h/std/c++/cctype'
p1282
g755
g751
tp1283
sS'limits.h'
p1284
(S'c:/marmalade/6.0/s3e/h/std/limits.h'
p1285
g748
g751
tp1286
sS'b2RopeJoint.h'
p1287
(g712
g769
g542
tp1288
sS'fcntl.h'
p1289
(S'c:/marmalade/6.0/s3e/h/std/fcntl.h'
p1290
g748
g751
tp1291
sS'b2Math.cpp'
p1292
(g606
g741
g542
tp1293
sS'csignal'
p1294
(S'c:/marmalade/6.0/s3e/h/std/c++/csignal'
p1295
g755
g751
tp1296
sS'types.h'
p1297
(S'c:/marmalade/6.0/s3e/h/std/sys/types.h'
p1298
g835
g751
tp1299
sS'float.h'
p1300
(S'c:/marmalade/6.0/s3e/h/std/float.h'
p1301
g748
g751
tp1302
sS'ifaddrs.h'
p1303
(S'c:/marmalade/6.0/s3e/h/std/ifaddrs.h'
p1304
g748
g751
tp1305
sS'b2DistanceJoint.cpp'
p1306
(g694
g769
g542
tp1307
sS'memory.h'
p1308
(S'c:/marmalade/6.0/s3e/h/std/memory.h'
p1309
g748
g751
tp1310
sS'b2CollidePolygon.cpp'
p1311
(g545
g842
g542
tp1312
sS'utime.h'
p1313
(S'c:/marmalade/6.0/s3e/h/std/utime.h'
p1314
g748
g751
tp1315
sS'strstream'
p1316
(S'c:/marmalade/6.0/s3e/h/std/c++/strstream'
p1317
g755
g751
tp1318
sS's3eAccelerometer.h'
p1319
(S'c:/marmalade/6.0/s3e/h/s3eAccelerometer.h'
p1320
g782
g751
tp1321
sS'times.h'
p1322
(S'c:/marmalade/6.0/s3e/h/std/sys/times.h'
p1323
g835
g751
tp1324
sS'b2LoopAndCircleContact.cpp'
p1325
(g664
g852
g542
tp1326
sS'b2EdgeShape.h'
p1327
(g573
g788
g542
tp1328
sS'exception'
p1329
(S'c:/marmalade/6.0/s3e/h/std/c++/exception'
p1330
g755
g751
tp1331
sS'egl.h'
p1332
(S'c:/marmalade/6.0/s3e/h/EGL/egl.h'
p1333
g1162
g751
tp1334
sS'b2ContactManager.cpp'
p1335
(g736
g744
g542
tp1336
sS'b2WorldCallbacks.cpp'
p1337
(g734
g744
g542
tp1338
sS'rlocks.h'
p1339
(S'c:/marmalade/6.0/s3e/h/std/c++/rlocks.h'
p1340
g755
g751
tp1341
sS'b2Settings.h'
p1342
(g618
g741
g542
tp1343
sS'b2DistanceJoint.h'
p1344
(g702
g769
g542
tp1345
sS'ioctl.h'
p1346
(S'c:/marmalade/6.0/s3e/h/std/sys/ioctl.h'
p1347
g835
g751
tp1348
sS'rope'
p1349
(S'c:/marmalade/6.0/s3e/h/std/c++/rope'
p1350
g755
g751
tp1351
sS'b2GearJoint.cpp'
p1352
(g680
g769
g542
tp1353
sS'ostream.h'
p1354
(S'c:/marmalade/6.0/s3e/h/std/c++/ostream.h'
p1355
g755
g751
tp1356
sS'b2LoopAndPolygonContact.cpp'
p1357
(g646
g852
g542
tp1358
sS'setjmp.h'
p1359
(S'c:/marmalade/6.0/s3e/h/std/setjmp.h'
p1360
g748
g751
tp1361
sS'iconv.h'
p1362
(S'c:/marmalade/6.0/s3e/h/std/iconv.h'
p1363
g748
g751
tp1364
sS'b2Distance.h'
p1365
(g555
g842
g542
tp1366
sS's3eDevice.h'
p1367
(S'c:/marmalade/6.0/s3e/h/s3eDevice.h'
p1368
g782
g751
tp1369
sS'poll_1.h'
p1370
(S'c:/marmalade/6.0/s3e/h/std/sys/poll.h'
p1371
g835
g751
tp1372
sS's3eThread.h'
p1373
(S'c:/marmalade/6.0/s3e/h/s3eThread.h'
p1374
g782
g751
tp1375
sS'stl_user_config.h'
p1376
(S'c:/marmalade/6.0/s3e/h/std/c++/stl_user_config.h'
p1377
g755
g751
tp1378
sS'b2FrictionJoint.h'
p1379
(g706
g769
g542
tp1380
sS'b2WeldJoint.h'
p1381
(g698
g769
g542
tp1382
sS'langinfo.h'
p1383
(S'c:/marmalade/6.0/s3e/h/std/langinfo.h'
p1384
g748
g751
tp1385
sS's3edebugHeap.h'
p1386
(S'c:/marmalade/6.0/s3e/h/ext/s3edebugHeap.h'
p1387
g860
g751
tp1388
sS'time.h'
p1389
(S'c:/marmalade/6.0/s3e/h/std/time.h'
p1390
g748
g751
tp1391
sS'AirplayVersion.h'
p1392
(S'c:/marmalade/6.0/s3e/h/AirplayVersion.h'
p1393
g782
g751
tp1394
sS'b2TimeOfImpact.cpp'
p1395
(g583
g842
g542
tp1396
sS'stdexcept'
p1397
(S'c:/marmalade/6.0/s3e/h/std/c++/stdexcept'
p1398
g755
g751
tp1399
sS's3eSoundRecord.h'
p1400
(S'c:/marmalade/6.0/s3e/h/s3eSoundRecord.h'
p1401
g782
g751
tp1402
sS'gl2extimg.h'
p1403
(S'c:/marmalade/6.0/s3e/h/GLES2/gl2extimg.h'
p1404
g923
g751
tp1405
sS's3eConfig.h'
p1406
(S'c:/marmalade/6.0/s3e/h/s3eConfig.h'
p1407
g782
g751
tp1408
sS'pthread_types.h'
p1409
(S'c:/marmalade/6.0/s3e/h/std/pthread_types.h'
p1410
g748
g751
tp1411
sS'stat.h'
p1412
(S'c:/marmalade/6.0/s3e/h/std/sys/stat.h'
p1413
g835
g751
tp1414
sS's3eClipboard.h'
p1415
(S'c:/marmalade/6.0/s3e/h/s3eClipboard.h'
p1416
g782
g751
tp1417
sS'MarmaladeVersion.h'
p1418
(S'c:/marmalade/6.0/s3e/h/MarmaladeVersion.h'
p1419
g782
g751
tp1420
sS'b2TimeStep.h'
p1421
(g728
g744
g542
tp1422
sS'syslog.h'
p1423
(S'c:/marmalade/6.0/s3e/h/std/syslog.h'
p1424
g748
g751
tp1425
sS's3eVersion.h'
p1426
(S'c:/marmalade/6.0/s3e/h/s3eVersion.h'
p1427
g782
g751
tp1428
sS'ios.h'
p1429
(S'c:/marmalade/6.0/s3e/h/std/c++/ios.h'
p1430
g755
g751
tp1431
sS'b2BroadPhase.h'
p1432
(g553
g842
g542
tp1433
sS'hash_map'
p1434
(S'c:/marmalade/6.0/s3e/h/std/c++/hash_map'
p1435
g755
g751
tp1436
sS'b2Shape.h'
p1437
(g559
g788
g542
tp1438
sS'pthread_1.h'
p1439
(S'c:/marmalade/6.0/s3e/h/std/c++/pthread.h'
p1440
g755
g751
tp1441
sS'b2EdgeShape.cpp'
p1442
(g563
g788
g542
tp1443
sS'hash_set'
p1444
(S'c:/marmalade/6.0/s3e/h/std/c++/hash_set'
p1445
g755
g751
tp1446
sS's3eTypes.h'
p1447
(S'c:/marmalade/6.0/s3e/h/s3eTypes.h'
p1448
g782
g751
tp1449
sS'complex'
p1450
(S'c:/marmalade/6.0/s3e/h/std/c++/complex'
p1451
g755
g751
tp1452
sS's3eAndroidJNI.h'
p1453
(S'c:/marmalade/6.0/s3e/h/ext/s3eAndroidJNI.h'
p1454
g860
g751
tp1455
sS'eglplatform.h'
p1456
(S'c:/marmalade/6.0/s3e/h/EGL/eglplatform.h'
p1457
g1162
g751
tp1458
sS'signal_2.h'
p1459
(S'c:/marmalade/6.0/s3e/h/std/c++/signal.h'
p1460
g755
g751
tp1461
sS'stdbool.h'
p1462
(S'c:/marmalade/6.0/s3e/h/std/stdbool.h'
p1463
g748
g751
tp1464
sS'b2RopeJoint.cpp'
p1465
(g678
g769
g542
tp1466
sS'b2EdgeAndCircleContact.h'
p1467
(g650
g852
g542
tp1468
sS'math_gcc.h'
p1469
(S'c:/marmalade/6.0/s3e/h/std/math_gcc.h'
p1470
g748
g751
tp1471
sS's3eMemory.h'
p1472
(S'c:/marmalade/6.0/s3e/h/s3eMemory.h'
p1473
g782
g751
tp1474
sS'map'
p1475
(S'c:/marmalade/6.0/s3e/h/std/c++/map'
p1476
g755
g751
tp1477
sS'sem.h'
p1478
(S'c:/marmalade/6.0/s3e/h/std/sys/sem.h'
p1479
g835
g751
tp1480
sS'b2Body.cpp'
p1481
(g718
g744
g542
tp1482
sS'wchar.h'
p1483
(S'c:/marmalade/6.0/s3e/h/std/wchar.h'
p1484
g748
g751
tp1485
sS'b2PolygonContact.h'
p1486
(g640
g852
g542
tp1487
sS'b2ContactManager.h'
p1488
(g726
g744
g542
tp1489
sS's3eFile.h'
p1490
(S'c:/marmalade/6.0/s3e/h/s3eFile.h'
p1491
g782
g751
tp1492
sS'type_traits.h'
p1493
(S'c:/marmalade/6.0/s3e/h/std/c++/type_traits.h'
p1494
g755
g751
tp1495
sS'ios'
p1496
(S'c:/marmalade/6.0/s3e/h/std/c++/ios'
p1497
g755
g751
tp1498
sS'inttypes.h'
p1499
(S'c:/marmalade/6.0/s3e/h/std/inttypes.h'
p1500
g748
g751
tp1501
sS'msl_string.h'
p1502
(S'c:/marmalade/6.0/s3e/h/std/c++/msl_string.h'
p1503
g755
g751
tp1504
sS'b2CircleContact.h'
p1505
(g648
g852
g542
tp1506
sS'b2BroadPhase.cpp'
p1507
(g543
g842
g542
tp1508
sS'sigcontext.h'
p1509
(S'c:/marmalade/6.0/s3e/h/std/sigcontext.h'
p1510
g748
g751
tp1511
sS'b2Fixture.h'
p1512
(g724
g744
g542
tp1513
sS's3eAudio.h'
p1514
(S'c:/marmalade/6.0/s3e/h/s3eAudio.h'
p1515
g782
g751
tp1516
sS'b2CollideEdge.cpp'
p1517
(g577
g842
g542
tp1518
sS'b2RevoluteJoint.cpp'
p1519
(g674
g769
g542
tp1520
sS's3eLocation.h'
p1521
(S'c:/marmalade/6.0/s3e/h/s3eLocation.h'
p1522
g782
g751
tp1523
sS'b2PolygonAndCircleContact.h'
p1524
(g654
g852
g542
tp1525
sS'libgen.h'
p1526
(S'c:/marmalade/6.0/s3e/h/std/libgen.h'
p1527
g748
g751
tp1528
sS'resource.h'
p1529
(S'c:/marmalade/6.0/s3e/h/std/sys/resource.h'
p1530
g835
g751
tp1531
sS'cmath'
p1532
(S'c:/marmalade/6.0/s3e/h/std/c++/cmath'
p1533
g755
g751
tp1534
sS'signal.h'
p1535
(S'c:/marmalade/6.0/s3e/h/std/signal.h'
p1536
g748
g751
tp1537
sS'utsname.h'
p1538
(S'c:/marmalade/6.0/s3e/h/std/sys/utsname.h'
p1539
g835
g751
tp1540
sS's3eLibrary.h'
p1541
(S'c:/marmalade/6.0/s3e/h/ext/s3eLibrary.h'
p1542
g860
g751
tp1543
sS'csetjmp'
p1544
(S'c:/marmalade/6.0/s3e/h/std/c++/csetjmp'
p1545
g755
g751
tp1546
sS'netdb.h'
p1547
(S'c:/marmalade/6.0/s3e/h/std/netdb.h'
p1548
g748
g751
tp1549
sS's3eHash.h'
p1550
(S'c:/marmalade/6.0/s3e/h/s3eHash.h'
p1551
g782
g751
tp1552
sS'typeinfo.h'
p1553
(S'c:/marmalade/6.0/s3e/h/std/c++/typeinfo.h'
p1554
g755
g751
tp1555
sS'b2Math.h'
p1556
(g614
g741
g542
tp1557
sS'new.h'
p1558
(S'c:/marmalade/6.0/s3e/h/std/c++/new.h'
p1559
g755
g751
tp1560
sS'math.h'
p1561
(S'c:/marmalade/6.0/s3e/h/std/math.h'
p1562
g748
g751
tp1563
sS'b2StackAllocator.h'
p1564
(g622
g741
g542
tp1565
sS's3eDebug.h'
p1566
(S'c:/marmalade/6.0/s3e/h/s3eDebug.h'
p1567
g782
g751
tp1568
sS's3eEMail.h'
p1569
(S'c:/marmalade/6.0/s3e/h/ext/s3eEMail.h'
p1570
g860
g751
tp1571
sS'uio.h'
p1572
(S'c:/marmalade/6.0/s3e/h/std/sys/uio.h'
p1573
g835
g751
tp1574
sS'glext.h'
p1575
(S'c:/marmalade/6.0/s3e/h/GLES/glext.h'
p1576
g1076
g751
tp1577
sS's3eVideo.h'
p1578
(S'c:/marmalade/6.0/s3e/h/s3eVideo.h'
p1579
g782
g751
tp1580
sS'select.h'
p1581
(S'c:/marmalade/6.0/s3e/h/std/sys/select.h'
p1582
g835
g751
tp1583
sS'pwd.h'
p1584
(S'c:/marmalade/6.0/s3e/h/std/pwd.h'
p1585
g748
g751
tp1586
sS'b2BlockAllocator.cpp'
p1587
(g604
g741
g542
tp1588
sS'b2Contact.cpp'
p1589
(g634
g852
g542
tp1590
ssS'tests'
p1591
(lp1592
sS'project_name'
p1593
S'box2d'
p1594
sS'root_file'
p1595
g98
sS'current_root'
p1596
S'C:/GIT/ADL-STEM/libraries'
p1597
sS'dependencies'
p1598
(lp1599
sS'include_paths'
p1600
(lp1601
S'c:/git/adl-stem/libraries'
p1602
aS'c:/marmalade/6.0/s3e/h'
p1603
aS'c:/marmalade/6.0/s3e/h/ext'
p1604
aS'c:/marmalade/6.0/s3e/h/std'
p1605
aS'c:/marmalade/6.0/s3e/h/std/c++'
p1606
aS'c:/marmalade/6.0/s3e/h/ext_legacy'
p1607
aS'c:/marmalade/6.0/s3e/h/legacy'
p1608
asS'weak_frameworks'
p1609
(lp1610
sS'extprojects'
p1611
(dp1612
sg273
(dp1613
g267
(lp1614
ssS'macro_types'
p1615
(dp1616
g247
I0
sg248
I0
sg249
I0
sg250
I0
sg251
I0
sg252
I0
sg253
I0
sg254
I0
sg256
I0
sg257
I0
sg259
I01
ssS'commands'
p1617
(lp1618
sg275
(g529
S'VC10'
p1619
S'X86ARM'
p1620
tp1621
sS'build_libs'
p1622
(dp1623
sS'frameworks'
p1624
(lp1625
sS'environ'
p1626
(dp1627
sS'target_name_debug'
p1628
g215
(g223
g217
Ntp1629
Rp1630
(dp1631
g227
S'../box2d'
p1632
sg229
I01
sg230
g231
sg232
I00
sg233
Nsg234
Nsg235
I00
sg32
NsbsS'builders'
p1633
(dp1634
S'.S'
p1635
(dp1636
S'rvct'
p1637
(lp1638
S'.obj'
p1639
aS'echo ARM Assembling(RVCT) ${SOURCE}...'
p1640
aS'c:/marmalade/6.0/s3e\\rvct\\bin\\armasm -o ${TARGET} ${SOURCE}'
p1641
asS'gcc'
p1642
(lp1643
g1639
aS'echo ARM Assembling(GCC) ${SOURCE}...'
p1644
aS'c:/marmalade/6.0/s3e\\gcc\\bin\\arm-none-eabi-gcc -c -o ${TARGET} ${SOURCE}'
p1645
asS'ppu'
p1646
(lp1647
S'.a'
p1648
aS'echo PPU Assembling(SNC) ${SOURCE}...'
p1649
aS'c:/marmalade/6.0/s3e\\rvct\\bin\\armasm -o ${TARGET} ${SOURCE}'
p1650
assS'.s'
p1651
g1636
ssg277
g0
sbtp1652
.