(dp0
S'IW_PLATFORM_S3E'
p1
NsS'I3D_PLATFORM_S3E'
p2
NsS'IW_MKF_BOX2D'
p3
NsS'S3E_INCLUDE_LEGACY'
p4
NsS'IW_SDK'
p5
NsS'__S3E__'
p6
NsS'_CRT_SECURE_NO_DEPRECATE'
p7
NsS'IW_APP_NAME'
p8
S'"box2d"'
p9
sS'I3D_OS_S3E'
p10
NsS'IW_APP_VERSION'
p11
S'"1.0"'
p12
sS'IW_DEBUG'
p13
Ns.